; Function Attrs: mustprogress uwtable
define hidden noundef zeroext i1 @_ZN6google8protobuf2io19LimitingInputStream4NextEPPKvPi(ptr noundef nonnull align 8 captures(none) dereferenceable(32) %0, ptr noundef %1, ptr noundef %2) unnamed_addr #6 align 2 {
  %4 = getelementptr inbounds nuw i8, ptr %0, i64 16
  %5 = load i64, ptr %4, align 8, !tbaa !67
  %6 = icmp slt i64 %5, 1
  br i1 %6, label %23, label %7

7:                                                ; preds = %3
  %8 = getelementptr inbounds nuw i8, ptr %0, i64 8
  %9 = load ptr, ptr %8, align 8, !tbaa !64
  %10 = load ptr, ptr %9, align 8, !tbaa !3
  %11 = getelementptr inbounds nuw i8, ptr %10, i64 16
  %12 = load ptr, ptr %11, align 8
  %13 = tail call noundef zeroext i1 %12(ptr noundef nonnull align 8 dereferenceable(8) %9, ptr noundef %1, ptr noundef %2)
  br i1 %13, label %14, label %23

14:                                               ; preds = %7
  %15 = load i32, ptr %2, align 4, !tbaa !17
  %16 = sext i32 %15 to i64
  %17 = load i64, ptr %4, align 8, !tbaa !67
  %18 = sub nsw i64 %17, %16
  store i64 %18, ptr %4, align 8, !tbaa !67
  %19 = icmp slt i64 %18, 0
  br i1 %19, label %20, label %23

20:                                               ; preds = %14
  %21 = trunc i64 %18 to i32
  %22 = add i32 %15, %21
  store i32 %22, ptr %2, align 4, !tbaa !17
  br label %23

23:                                               ; preds = %14, %20, %7, %3
  %.0 = phi i1 [ false, %3 ], [ false, %7 ], [ true, %20 ], [ true, %14 ]
  ret i1 %.0
}